target datalayout = "e-m:e-p270:32:32-p271:32:32-p272:64:64-i64:64-i128:128-f80:128-n8:16:32:64-S128"
target triple = "x86_64-pc-linux-gnu"

%"class.llvm::ArrayRef" = type { ptr, i64 }
%"struct.llvm::codeview::RecordPrefix" = type { %"struct.llvm::support::detail::packed_endian_specific_integral", %"struct.llvm::support::detail::packed_endian_specific_integral" }
%"struct.llvm::support::detail::packed_endian_specific_integral" = type { %struct.anon }
%struct.anon = type { [2 x i8] }
%"class.llvm::codeview::CVRecord.4" = type { %"class.llvm::ArrayRef" }

; Function Attrs: mustprogress nounwind uwtable
define linkonce_odr hidden noundef zeroext i16 @_ZN4llvm8byteswapItvEET_S1_(i16 noundef zeroext %0) #0 comdat {
  %2 = alloca i16, align 2
  %3 = alloca i16, align 2
  %4 = alloca i16, align 2
  %5 = alloca i16, align 2
  store i16 %0, ptr %2, align 2
  %6 = load i16, ptr %2, align 2
  store i16 %6, ptr %3, align 2
  %7 = load i16, ptr %3, align 2
  %8 = zext i16 %7 to i32
  %9 = shl i32 %8, 8
  %10 = trunc i32 %9 to i16
  store i16 %10, ptr %4, align 2
  %11 = load i16, ptr %3, align 2
  %12 = zext i16 %11 to i32
  %13 = ashr i32 %12, 8
  %14 = trunc i32 %13 to i16
  store i16 %14, ptr %5, align 2
  %15 = load i16, ptr %4, align 2
  %16 = zext i16 %15 to i32
  %17 = load i16, ptr %5, align 2
  %18 = zext i16 %17 to i32
  %19 = or i32 %16, %18
  %20 = trunc i32 %19 to i16
  ret i16 %20
}

; Function Attrs: mustprogress nounwind uwtable
define linkonce_odr hidden noundef zeroext i16 @_ZN4llvm3sys15getSwappedBytesEt(i16 noundef zeroext %0) #0 comdat {
  %2 = alloca i16, align 2
  store i16 %0, ptr %2, align 2
  %3 = load i16, ptr %2, align 2
  %4 = call noundef zeroext i16 @_ZN4llvm8byteswapItvEET_S1_(i16 noundef zeroext %3) #12
  ret i16 %4
}

; Function Attrs: mustprogress nounwind uwtable
define linkonce_odr hidden void @_ZN4llvm3sys13swapByteOrderItEEvRT_(ptr noundef nonnull align 2 dereferenceable(2) %0) #0 comdat {
  %2 = alloca ptr, align 8
  store ptr %0, ptr %2, align 8
  %3 = load ptr, ptr %2, align 8
  %4 = load i16, ptr %3, align 2
  %5 = call noundef zeroext i16 @_ZN4llvm3sys15getSwappedBytesEt(i16 noundef zeroext %4)
  %6 = load ptr, ptr %2, align 8
  store i16 %5, ptr %6, align 2
  ret void
}

; Function Attrs: mustprogress nounwind uwtable
define linkonce_odr hidden noundef zeroext i16 @_ZN4llvm7support6endian9byte_swapItEET_S3_NS_10endiannessE(i16 noundef zeroext %0, i32 noundef %1) #0 comdat {
  %3 = alloca i16, align 2
  %4 = alloca i32, align 4
  store i16 %0, ptr %3, align 2
  store i32 %1, ptr %4, align 4
  %5 = load i32, ptr %4, align 4
  %6 = icmp ne i32 %5, 1
  br i1 %6, label %7, label %8

7:                                                ; preds = %2
  call void @_ZN4llvm3sys13swapByteOrderItEEvRT_(ptr noundef nonnull align 2 dereferenceable(2) %3)
  br label %8

8:                                                ; preds = %7, %2
  %9 = load i16, ptr %3, align 2
  ret i16 %9
}

; Function Attrs: mustprogress nounwind uwtable
define linkonce_odr hidden void @_ZN4llvm8ArrayRefIhEC2EPKhm(ptr noundef nonnull align 8 dereferenceable(16) %0, ptr noundef %1, i64 noundef %2) unnamed_addr #0 comdat align 2 {
  %4 = alloca ptr, align 8
  %5 = alloca ptr, align 8
  %6 = alloca i64, align 8
  store ptr %0, ptr %4, align 8
  store ptr %1, ptr %5, align 8
  store i64 %2, ptr %6, align 8
  %7 = load ptr, ptr %4, align 8
  %8 = getelementptr inbounds nuw %"class.llvm::ArrayRef", ptr %7, i32 0, i32 0
  %9 = load ptr, ptr %5, align 8
  store ptr %9, ptr %8, align 8
  %10 = getelementptr inbounds nuw %"class.llvm::ArrayRef", ptr %7, i32 0, i32 1
  %11 = load i64, ptr %6, align 8
  store i64 %11, ptr %10, align 8
  ret void
}

; Function Attrs: mustprogress nounwind uwtable
define linkonce_odr hidden noundef zeroext i16 @_ZN4llvm7support6endian4readItLm1EEET_PKvNS_10endiannessE(ptr noundef %0, i32 noundef %1) #0 comdat {
  %3 = alloca ptr, align 8
  %4 = alloca i32, align 4
  %5 = alloca i16, align 2
  store ptr %0, ptr %3, align 8
  store i32 %1, ptr %4, align 4
  %6 = load ptr, ptr %3, align 8
  call void @llvm.assume(i1 true) [ "align"(ptr %6, i64 1) ]
  call void @llvm.memcpy.p0.p0.i64(ptr align 2 %5, ptr align 1 %6, i64 2, i1 false)
  %7 = load i16, ptr %5, align 2
  %8 = load i32, ptr %4, align 4
  %9 = call noundef zeroext i16 @_ZN4llvm7support6endian9byte_swapItEET_S3_NS_10endiannessE(i16 noundef zeroext %7, i32 noundef %8)
  ret i16 %9
}

; Function Attrs: mustprogress nounwind uwtable
define linkonce_odr hidden { ptr, i64 } @_ZNK4llvm8ArrayRefIhE5sliceEmm(ptr noundef nonnull align 8 dereferenceable(16) %0, i64 noundef %1, i64 noundef %2) #0 comdat align 2 {
  %4 = alloca %"class.llvm::ArrayRef", align 8
  %5 = alloca ptr, align 8
  %6 = alloca i64, align 8
  %7 = alloca i64, align 8
  store ptr %0, ptr %5, align 8
  store i64 %1, ptr %6, align 8
  store i64 %2, ptr %7, align 8
  %8 = load ptr, ptr %5, align 8
  %9 = call noundef ptr @_ZNK4llvm8ArrayRefIhE4dataEv(ptr noundef nonnull align 8 dereferenceable(16) %8)
  %10 = load i64, ptr %6, align 8
  %11 = getelementptr inbounds i8, ptr %9, i64 %10
  %12 = load i64, ptr %7, align 8
  call void @_ZN4llvm8ArrayRefIhEC2EPKhm(ptr noundef nonnull align 8 dereferenceable(16) %4, ptr noundef %11, i64 noundef %12)
  %13 = load { ptr, i64 }, ptr %4, align 8
  ret { ptr, i64 } %13
}

; Function Attrs: mustprogress nounwind uwtable
define linkonce_odr hidden noundef zeroext i16 @_ZN4llvm7support6endian4readItLNS_10endiannessE1ELm1EEET_PKv(ptr noundef %0) #0 comdat {
  %2 = alloca ptr, align 8
  store ptr %0, ptr %2, align 8
  %3 = load ptr, ptr %2, align 8
  %4 = call noundef zeroext i16 @_ZN4llvm7support6endian4readItLm1EEET_PKvNS_10endiannessE(ptr noundef %3, i32 noundef 1)
  ret i16 %4
}

; Function Attrs: mustprogress nounwind uwtable
define linkonce_odr hidden { ptr, i64 } @_ZNK4llvm8ArrayRefIhE10drop_frontEm(ptr noundef nonnull align 8 dereferenceable(16) %0, i64 noundef %1) #0 comdat align 2 {
  %3 = alloca %"class.llvm::ArrayRef", align 8
  %4 = alloca ptr, align 8
  %5 = alloca i64, align 8
  store ptr %0, ptr %4, align 8
  store i64 %1, ptr %5, align 8
  %6 = load ptr, ptr %4, align 8
  %7 = load i64, ptr %5, align 8
  %8 = call noundef i64 @_ZNK4llvm8ArrayRefIhE4sizeEv(ptr noundef nonnull align 8 dereferenceable(16) %6)
  %9 = load i64, ptr %5, align 8
  %10 = sub i64 %8, %9
  %11 = call { ptr, i64 } @_ZNK4llvm8ArrayRefIhE5sliceEmm(ptr noundef nonnull align 8 dereferenceable(16) %6, i64 noundef %7, i64 noundef %10)
  %12 = getelementptr inbounds nuw { ptr, i64 }, ptr %3, i32 0, i32 0
  %13 = extractvalue { ptr, i64 } %11, 0
  store ptr %13, ptr %12, align 8
  %14 = getelementptr inbounds nuw { ptr, i64 }, ptr %3, i32 0, i32 1
  %15 = extractvalue { ptr, i64 } %11, 1
  store i64 %15, ptr %14, align 8
  %16 = load { ptr, i64 }, ptr %3, align 8
  ret { ptr, i64 } %16
}

; Function Attrs: mustprogress nounwind uwtable
define linkonce_odr hidden noundef zeroext i16 @_ZNK4llvm7support6detail31packed_endian_specific_integralItLNS_10endiannessE1ELm1ELm1EEcvtEv(ptr noundef nonnull align 1 dereferenceable(2) %0) #0 comdat align 2 {
  %2 = alloca ptr, align 8
  store ptr %0, ptr %2, align 8
  %3 = load ptr, ptr %2, align 8
  %4 = getelementptr inbounds nuw %"struct.llvm::support::detail::packed_endian_specific_integral", ptr %3, i32 0, i32 0
  %5 = getelementptr inbounds nuw %struct.anon, ptr %4, i32 0, i32 0
  %6 = getelementptr inbounds [2 x i8], ptr %5, i64 0, i64 0
  %7 = call noundef zeroext i16 @_ZN4llvm7support6endian4readItLNS_10endiannessE1ELm1EEET_PKv(ptr noundef %6)
  ret i16 %7
}

; Function Attrs: mustprogress nounwind uwtable
define linkonce_odr hidden noundef ptr @_ZNK4llvm8ArrayRefIhE4dataEv(ptr noundef nonnull align 8 dereferenceable(16) %0) #0 comdat align 2 {
  %2 = alloca ptr, align 8
  store ptr %0, ptr %2, align 8
  %3 = load ptr, ptr %2, align 8
  %4 = getelementptr inbounds nuw %"class.llvm::ArrayRef", ptr %3, i32 0, i32 0
  %5 = load ptr, ptr %4, align 8
  ret ptr %5
}

; Function Attrs: mustprogress nounwind uwtable
define linkonce_odr hidden noundef i64 @_ZNK4llvm8ArrayRefIhE4sizeEv(ptr noundef nonnull align 8 dereferenceable(16) %0) #0 comdat align 2 {
  %2 = alloca ptr, align 8
  store ptr %0, ptr %2, align 8
  %3 = load ptr, ptr %2, align 8
  %4 = getelementptr inbounds nuw %"class.llvm::ArrayRef", ptr %3, i32 0, i32 1
  %5 = load i64, ptr %4, align 8
  ret i64 %5
}

; Function Attrs: mustprogress nounwind uwtable
define linkonce_odr hidden { ptr, i64 } @_ZNK4llvm8codeview8CVRecordINS0_10SymbolKindEE7contentEv(ptr noundef nonnull align 8 dereferenceable(16) %0) #0 comdat align 2 {
  %2 = alloca %"class.llvm::ArrayRef", align 8
  %3 = alloca ptr, align 8
  store ptr %0, ptr %3, align 8
  %4 = load ptr, ptr %3, align 8
  %5 = getelementptr inbounds nuw %"class.llvm::codeview::CVRecord.4", ptr %4, i32 0, i32 0
  %6 = call { ptr, i64 } @_ZNK4llvm8ArrayRefIhE10drop_frontEm(ptr noundef nonnull align 8 dereferenceable(16) %5, i64 noundef 4)
  %7 = getelementptr inbounds nuw { ptr, i64 }, ptr %2, i32 0, i32 0
  %8 = extractvalue { ptr, i64 } %6, 0
  store ptr %8, ptr %7, align 8
  %9 = getelementptr inbounds nuw { ptr, i64 }, ptr %2, i32 0, i32 1
  %10 = extractvalue { ptr, i64 } %6, 1
  store i64 %10, ptr %9, align 8
  %11 = load { ptr, i64 }, ptr %2, align 8
  ret { ptr, i64 } %11
}

; Function Attrs: mustprogress nounwind uwtable
define linkonce_odr hidden noundef zeroext i16 @_ZNK4llvm8codeview8CVRecordINS0_10SymbolKindEE4kindEv(ptr noundef nonnull align 8 dereferenceable(16) %0) #0 comdat align 2 {
  %2 = alloca i16, align 2
  %3 = alloca ptr, align 8
  store ptr %0, ptr %3, align 8
  %4 = load ptr, ptr %3, align 8
  %5 = getelementptr inbounds nuw %"class.llvm::codeview::CVRecord.4", ptr %4, i32 0, i32 0
  %6 = call noundef i64 @_ZNK4llvm8ArrayRefIhE4sizeEv(ptr noundef nonnull align 8 dereferenceable(16) %5)
  %7 = icmp ult i64 %6, 4
  br i1 %7, label %8, label %9

8:                                                ; preds = %1
  store i16 0, ptr %2, align 2
  br label %14

9:                                                ; preds = %1
  %10 = getelementptr inbounds nuw %"class.llvm::codeview::CVRecord.4", ptr %4, i32 0, i32 0
  %11 = call noundef ptr @_ZNK4llvm8ArrayRefIhE4dataEv(ptr noundef nonnull align 8 dereferenceable(16) %10)
  %12 = getelementptr inbounds nuw %"struct.llvm::codeview::RecordPrefix", ptr %11, i32 0, i32 1
  %13 = call noundef zeroext i16 @_ZNK4llvm7support6detail31packed_endian_specific_integralItLNS_10endiannessE1ELm1ELm1EEcvtEv(ptr noundef nonnull align 1 dereferenceable(2) %12)
  store i16 %13, ptr %2, align 2
  br label %14

14:                                               ; preds = %9, %8
  %15 = load i16, ptr %2, align 2
  ret i16 %15
}

; Function Attrs: mustprogress nounwind uwtable
define dso_local noundef zeroext i1 @_ZN4llvm8codeview27discoverTypeIndicesInSymbolERKNS0_8CVRecordINS0_10SymbolKindEEERNS_15SmallVectorImplINS0_11TiReferenceEEE(ptr noundef nonnull align 8 dereferenceable(16) %0, ptr noundef nonnull align 8 dereferenceable(16) %1) #0 {
  %3 = alloca ptr, align 8
  %4 = alloca ptr, align 8
  %5 = alloca i16, align 2
  %6 = alloca %"class.llvm::ArrayRef", align 8
  store ptr %0, ptr %3, align 8
  store ptr %1, ptr %4, align 8
  %7 = load ptr, ptr %3, align 8
  %8 = call noundef zeroext i16 @_ZNK4llvm8codeview8CVRecordINS0_10SymbolKindEE4kindEv(ptr noundef nonnull align 8 dereferenceable(16) %7)
  store i16 %8, ptr %5, align 2
  %9 = load ptr, ptr %3, align 8
  %10 = call { ptr, i64 } @_ZNK4llvm8codeview8CVRecordINS0_10SymbolKindEE7contentEv(ptr noundef nonnull align 8 dereferenceable(16) %9)
  %11 = getelementptr inbounds nuw { ptr, i64 }, ptr %6, i32 0, i32 0
  %12 = extractvalue { ptr, i64 } %10, 0
  store ptr %12, ptr %11, align 8
  %13 = getelementptr inbounds nuw { ptr, i64 }, ptr %6, i32 0, i32 1
  %14 = extractvalue { ptr, i64 } %10, 1
  store i64 %14, ptr %13, align 8
  %15 = load i16, ptr %5, align 2
  %16 = load ptr, ptr %4, align 8
  %17 = getelementptr inbounds nuw { ptr, i64 }, ptr %6, i32 0, i32 0
  %18 = load ptr, ptr %17, align 8
  %19 = getelementptr inbounds nuw { ptr, i64 }, ptr %6, i32 0, i32 1
  %20 = load i64, ptr %19, align 8
  %21 = call noundef zeroext i1 @_ZL19discoverTypeIndicesN4llvm8ArrayRefIhEENS_8codeview10SymbolKindERNS_15SmallVectorImplINS2_11TiReferenceEEE(ptr %18, i64 %20, i16 noundef zeroext %15, ptr noundef nonnull align 8 dereferenceable(16) %16)
  ret i1 %21
}