; Function Attrs: mustprogress nounwind uwtable
define dso_local noundef zeroext i1 @_ZN4llvm8codeview27discoverTypeIndicesInSymbolERKNS0_8CVRecordINS0_10SymbolKindEEERNS_15SmallVectorImplINS0_11TiReferenceEEE(ptr nocapture noundef nonnull readonly align 8 dereferenceable(16) %0, ptr noundef nonnull align 8 dereferenceable(16) %1) local_unnamed_addr #0 {
  %3 = getelementptr inbounds nuw i8, ptr %0, i64 8
  %4 = load i64, ptr %3, align 8
  %5 = icmp ult i64 %4, 4
  %.pre = load ptr, ptr %0, align 8
  br i1 %5, label %_ZNK4llvm8codeview8CVRecordINS0_10SymbolKindEE4kindEv.exit, label %6

6:                                                ; preds = %2
  %7 = getelementptr inbounds nuw i8, ptr %.pre, i64 2
  call void @llvm.assume(i1 true) [ "align"(ptr %7, i64 1) ]
  %.0.copyload.i.i.i.i = load i16, ptr %7, align 1
  br label %_ZNK4llvm8codeview8CVRecordINS0_10SymbolKindEE4kindEv.exit

_ZNK4llvm8codeview8CVRecordINS0_10SymbolKindEE4kindEv.exit: ; preds = %2, %6
  %.0.i = phi i16 [ %.0.copyload.i.i.i.i, %6 ], [ 0, %2 ]
  %8 = getelementptr inbounds i8, ptr %.pre, i64 4
  %9 = tail call fastcc noundef zeroext i1 @_ZL19discoverTypeIndicesN4llvm8ArrayRefIhEENS_8codeview10SymbolKindERNS_15SmallVectorImplINS2_11TiReferenceEEE(ptr nonnull %8, i16 noundef zeroext %.0.i, ptr noundef nonnull align 8 dereferenceable(16) %1)
  ret i1 %9
}